	.file	"square.c"
	.text
.Ltext0:
	.p2align 4,,15
	.globl	square
	.type	square, @function
square:
.LFB11:
	.file 1 "square.c"
	.loc 1 4 0
	.cfi_startproc
.LVL0:
	.loc 1 4 0
	movl	%edi, %eax
	.loc 1 5 0
	imull	%edi, %eax
	.loc 1 6 0
	ret
	.cfi_endproc
.LFE11:
	.size	square, .-square
	.section	.rodata.str1.1,"aMS",@progbits,1
.LC0:
	.string	"The square of %d is %d"
	.text
	.p2align 4,,15
	.globl	callSquare
	.type	callSquare, @function
callSquare:
.LFB12:
	.loc 1 8 0
	.cfi_startproc
.LVL1:
	pushq	%rbp
	.cfi_def_cfa_offset 16
	.cfi_offset 6, -16
	movl	%edi, %ebp
	pushq	%rbx
	.cfi_def_cfa_offset 24
	.cfi_offset 3, -24
	subq	$8, %rsp
	.cfi_def_cfa_offset 32
	.loc 1 10 0
	testl	%edi, %edi
	jle	.L6
	xorl	%ebx, %ebx
.LVL2:
	.p2align 4,,10
	.p2align 3
.L5:
.LBB6:
.LBB7:
	.loc 1 5 0
	movl	%ebx, %edx
.LBE7:
.LBE6:
	.loc 1 11 0
	movl	%ebx, %esi
	xorl	%eax, %eax
.LBB9:
.LBB8:
	.loc 1 5 0
	imull	%ebx, %edx
.LBE8:
.LBE9:
	.loc 1 11 0
	movl	$.LC0, %edi
	.loc 1 10 0
	addl	$1, %ebx
.LVL3:
	.loc 1 11 0
	call	printf
.LVL4:
	.loc 1 10 0
	cmpl	%ebp, %ebx
	jne	.L5
	movl	%ebx, %eax
	imull	%ebx, %eax
.LVL5:
.L3:
	.loc 1 15 0
	addq	$8, %rsp
	.cfi_remember_state
	.cfi_def_cfa_offset 24
	popq	%rbx
	.cfi_def_cfa_offset 16
	popq	%rbp
	.cfi_def_cfa_offset 8
.LVL6:
	ret
.LVL7:
.L6:
	.cfi_restore_state
	.loc 1 10 0
	xorl	%eax, %eax
	jmp	.L3
	.cfi_endproc
.LFE12:
	.size	callSquare, .-callSquare
.Letext0:
	.file 2 "/usr/local/gcc-4.8.1-for-linux64/lib/gcc/x86_64-pc-linux/4.8.1/include/stddef.h"
	.file 3 "/usr/local/gcc-4.8.1-for-linux64/include/bits/types.h"
	.file 4 "/usr/local/gcc-4.8.1-for-linux64/include/libio.h"
	.file 5 "/usr/local/gcc-4.8.1-for-linux64/include/stdio.h"
	.section	.note.GNU-stack,"",@progbits
